(lp0
(lp1
(lp2
I10
aI100
aI240
aI320
aV#ffc4c5
p3
aV
p4
aa(lp5
I30
aI120
aI80
aI80
aV#ffffff
p6
aV\u6ce2\u6bb5\u9009\u62e9
p7
aa(lp8
I150
aI120
aI80
aI80
aV#ffffff
p9
aV\u7535\u6587\u52a0\u8f7d
p10
aa(lp11
I150
aI220
aI80
aI80
aV#ffffff
p12
aV\u72b6\u6001\u67e5\u8be2
p13
aa(lp14
I150
aI320
aI80
aI80
aV#ffffff
p15
aV\u8f93\u51fa\u529f\u7387
p16
aa(lp17
I30
aI320
aI80
aI80
aV#ffffff
p18
aV\u591a\u666e\u52d2\u9891\u79fb
p19
aa(lp20
I30
aI220
aI80
aI80
aV#ffffff
p21
aV\u4f2a\u7801\u9009\u62e9
p22
aaa(lp23
(lp24
I10
aI100
aI240
aI320
aV#7f6eff
p25
aV\u8fd4\u56de
p26
aa(lp27
I10
aI100
aI240
aI20
aV#ffffff
p28
aV\u8fd4\u56de \u6ce2\u6bb5\u9009\u62e9
p29
aa(lp30
I20
aI200
aI100
aI100
aV#ffffff
p31
aVW1
p32
aa(lp33
I140
aI200
aI100
aI100
aV#ffffff
p34
aVL1
p35
aaa(lp36
(lp37
I10
aI100
aI240
aI320
aV#000000
p38
aV\u8fd4\u56de \u7535\u6587\u52a0\u8f7d
p39
aa(lp40
I10
aI100
aI240
aI20
aV#ffffff
p41
aV\u8fd4\u56de \u7535\u6587\u52a0\u8f7d
p42
aa(lp43
I77
aI130
aI47
aI40
aV#ffffff
p44
aV
p45
aa(lp46
I134
aI130
aI47
aI40
aV#ffffff
p47
aV
p48
aa(lp49
I191
aI130
aI47
aI40
aV#ffffff
p50
aV
p51
aa(lp52
I191
aI130
aI47
aI40
aV#000000
p53
aV
p54
aaa(lp55
(lp56
I10
aI100
aI240
aI320
aV#000000
p57
aV\u8fd4\u56de \u7535\u6587\u52a0\u8f7d
p58
aa(lp59
I10
aI100
aI240
aI20
aV#ffffff
p60
aV\u8fd4\u56de \u4f2a\u7801\u9009\u62e9
p61
aaa(lp62
(lp63
I10
aI100
aI240
aI320
aV#000000
p64
aV\u8fd4\u56de
p65
aa(lp66
I10
aI100
aI240
aI20
aV#ffffff
p67
aV\u8fd4\u56de \u72b6\u6001\u67e5\u8be2
p68
aaa(lp69
(lp70
I10
aI100
aI240
aI320
aV#000000
p71
aV
p72
aa(lp73
I10
aI100
aI240
aI20
aV#ffffff
p74
aV\u8fd4\u56de \u591a\u666e\u52d2\u9891\u79fb
p75
aaa(lp76
(lp77
I10
aI100
aI240
aI320
aV#000000
p78
aV\u8fd4\u56de \u8f93\u51fa\u529f\u7387
p79
aa(lp80
I10
aI100
aI240
aI20
aV#ffffff
p81
aV\u8fd4\u56de \u8f93\u51fa\u529f\u7387
p82
aaa(lp83
(lp84
I10
aI100
aI240
aI320
aV#000000
p85
aV\u8fd4\u56de error
p86
aa(lp87
I10
aI100
aI240
aI20
aV#ffffff
p88
aV\u8fd4\u56de
p89
aaa.